target datalayout = "e-m:e-p270:32:32-p271:32:32-p272:64:64-i64:64-i128:128-f80:128-n8:16:32:64-S128"
target triple = "x86_64-pc-linux-gnu"

%struct._rtpstream_id = type { %struct._address, i16, %struct._address, i16, i32 }
%struct._address = type { i32, i32, ptr, ptr }
%struct._packet_info = type { ptr, ptr, i32, i32, %struct.nstime_t, %struct.nstime_t, %struct.nstime_t, i8, ptr, ptr, ptr, ptr, %struct._address, %struct._address, %struct._address, %struct._address, %struct._address, %struct._address, i32, ptr, i8, [3 x i8], %struct.anon, i32, i32, i32, i32, ptr, i8, ptr, ptr, i16, i16, i32, i32, i16, i32, i32, ptr, ptr, ptr, i8, i8, i16, i16, i16, i32, i16, i16, ptr, ptr, ptr, ptr, ptr, i32, i32 }
%struct.nstime_t = type { i64, i32 }
%struct.anon = type { i8, [3 x i8] }

; Function Attrs: inlinehint nounwind null_pointer_is_valid sspstrong uwtable
define internal zeroext i1 @addresses_equal(ptr noundef %0, ptr noundef %1) #4 {
  %3 = alloca i1, align 1
  %4 = alloca ptr, align 8
  %5 = alloca ptr, align 8
  store ptr %0, ptr %4, align 8
  store ptr %1, ptr %5, align 8
  %6 = load ptr, ptr %4, align 8
  %7 = getelementptr inbounds nuw %struct._address, ptr %6, i32 0, i32 0
  %8 = load i32, ptr %7, align 8
  %9 = load ptr, ptr %5, align 8
  %10 = getelementptr inbounds nuw %struct._address, ptr %9, i32 0, i32 0
  %11 = load i32, ptr %10, align 8
  %12 = icmp eq i32 %8, %11
  br i1 %12, label %13, label %40

13:                                               ; preds = %2
  %14 = load ptr, ptr %4, align 8
  %15 = getelementptr inbounds nuw %struct._address, ptr %14, i32 0, i32 1
  %16 = load i32, ptr %15, align 4
  %17 = load ptr, ptr %5, align 8
  %18 = getelementptr inbounds nuw %struct._address, ptr %17, i32 0, i32 1
  %19 = load i32, ptr %18, align 4
  %20 = icmp eq i32 %16, %19
  br i1 %20, label %21, label %40

21:                                               ; preds = %13
  %22 = load ptr, ptr %4, align 8
  %23 = getelementptr inbounds nuw %struct._address, ptr %22, i32 0, i32 1
  %24 = load i32, ptr %23, align 4
  %25 = icmp eq i32 %24, 0
  br i1 %25, label %39, label %26

26:                                               ; preds = %21
  %27 = load ptr, ptr %4, align 8
  %28 = getelementptr inbounds nuw %struct._address, ptr %27, i32 0, i32 2
  %29 = load ptr, ptr %28, align 8
  %30 = load ptr, ptr %5, align 8
  %31 = getelementptr inbounds nuw %struct._address, ptr %30, i32 0, i32 2
  %32 = load ptr, ptr %31, align 8
  %33 = load ptr, ptr %4, align 8
  %34 = getelementptr inbounds nuw %struct._address, ptr %33, i32 0, i32 1
  %35 = load i32, ptr %34, align 4
  %36 = sext i32 %35 to i64
  %37 = call i32 @memcmp(ptr noundef %29, ptr noundef %32, i64 noundef %36) #11
  %38 = icmp eq i32 %37, 0
  br i1 %38, label %39, label %40

39:                                               ; preds = %26, %21
  store i1 true, ptr %3, align 1
  br label %41

40:                                               ; preds = %26, %13, %2
  store i1 false, ptr %3, align 1
  br label %41

41:                                               ; preds = %40, %39
  %42 = load i1, ptr %3, align 1
  ret i1 %42
}

; Function Attrs: null_pointer_is_valid sspstrong uwtable
define hidden zeroext i1 @rtpstream_id_equal_pinfo(ptr noundef %0, ptr noundef %1, i1 noundef zeroext %2) #0 {
  %4 = alloca i1, align 1
  %5 = alloca ptr, align 8
  %6 = alloca ptr, align 8
  %7 = alloca i8, align 1
  store ptr %0, ptr %5, align 8
  store ptr %1, ptr %6, align 8
  %8 = zext i1 %2 to i8
  store i8 %8, ptr %7, align 1
  %9 = load i8, ptr %7, align 1, !range !6, !noundef !7
  %10 = trunc i8 %9 to i1
  br i1 %10, label %43, label %11

11:                                               ; preds = %3
  %12 = load ptr, ptr %5, align 8
  %13 = getelementptr inbounds nuw %struct._rtpstream_id, ptr %12, i32 0, i32 0
  %14 = load ptr, ptr %6, align 8
  %15 = getelementptr inbounds nuw %struct._packet_info, ptr %14, i32 0, i32 16
  %16 = call zeroext i1 @addresses_equal(ptr noundef %13, ptr noundef %15)
  br i1 %16, label %17, label %42

17:                                               ; preds = %11
  %18 = load ptr, ptr %5, align 8
  %19 = getelementptr inbounds nuw %struct._rtpstream_id, ptr %18, i32 0, i32 1
  %20 = load i16, ptr %19, align 8
  %21 = zext i16 %20 to i32
  %22 = load ptr, ptr %6, align 8
  %23 = getelementptr inbounds nuw %struct._packet_info, ptr %22, i32 0, i32 24
  %24 = load i32, ptr %23, align 4
  %25 = icmp eq i32 %21, %24
  br i1 %25, label %26, label %42

26:                                               ; preds = %17
  %27 = load ptr, ptr %5, align 8
  %28 = getelementptr inbounds nuw %struct._rtpstream_id, ptr %27, i32 0, i32 2
  %29 = load ptr, ptr %6, align 8
  %30 = getelementptr inbounds nuw %struct._packet_info, ptr %29, i32 0, i32 17
  %31 = call zeroext i1 @addresses_equal(ptr noundef %28, ptr noundef %30)
  br i1 %31, label %32, label %42

32:                                               ; preds = %26
  %33 = load ptr, ptr %5, align 8
  %34 = getelementptr inbounds nuw %struct._rtpstream_id, ptr %33, i32 0, i32 3
  %35 = load i16, ptr %34, align 8
  %36 = zext i16 %35 to i32
  %37 = load ptr, ptr %6, align 8
  %38 = getelementptr inbounds nuw %struct._packet_info, ptr %37, i32 0, i32 25
  %39 = load i32, ptr %38, align 8
  %40 = icmp eq i32 %36, %39
  br i1 %40, label %41, label %42

41:                                               ; preds = %32
  store i1 true, ptr %4, align 1
  br label %76

42:                                               ; preds = %32, %26, %17, %11
  br label %75

43:                                               ; preds = %3
  %44 = load ptr, ptr %5, align 8
  %45 = getelementptr inbounds nuw %struct._rtpstream_id, ptr %44, i32 0, i32 0
  %46 = load ptr, ptr %6, align 8
  %47 = getelementptr inbounds nuw %struct._packet_info, ptr %46, i32 0, i32 17
  %48 = call zeroext i1 @addresses_equal(ptr noundef %45, ptr noundef %47)
  br i1 %48, label %49, label %74

49:                                               ; preds = %43
  %50 = load ptr, ptr %5, align 8
  %51 = getelementptr inbounds nuw %struct._rtpstream_id, ptr %50, i32 0, i32 1
  %52 = load i16, ptr %51, align 8
  %53 = zext i16 %52 to i32
  %54 = load ptr, ptr %6, align 8
  %55 = getelementptr inbounds nuw %struct._packet_info, ptr %54, i32 0, i32 25
  %56 = load i32, ptr %55, align 8
  %57 = icmp eq i32 %53, %56
  br i1 %57, label %58, label %74

58:                                               ; preds = %49
  %59 = load ptr, ptr %5, align 8
  %60 = getelementptr inbounds nuw %struct._rtpstream_id, ptr %59, i32 0, i32 2
  %61 = load ptr, ptr %6, align 8
  %62 = getelementptr inbounds nuw %struct._packet_info, ptr %61, i32 0, i32 16
  %63 = call zeroext i1 @addresses_equal(ptr noundef %60, ptr noundef %62)
  br i1 %63, label %64, label %74

64:                                               ; preds = %58
  %65 = load ptr, ptr %5, align 8
  %66 = getelementptr inbounds nuw %struct._rtpstream_id, ptr %65, i32 0, i32 3
  %67 = load i16, ptr %66, align 8
  %68 = zext i16 %67 to i32
  %69 = load ptr, ptr %6, align 8
  %70 = getelementptr inbounds nuw %struct._packet_info, ptr %69, i32 0, i32 24
  %71 = load i32, ptr %70, align 4
  %72 = icmp eq i32 %68, %71
  br i1 %72, label %73, label %74

73:                                               ; preds = %64
  store i1 true, ptr %4, align 1
  br label %76

74:                                               ; preds = %64, %58, %49, %43
  br label %75

75:                                               ; preds = %74, %42
  store i1 false, ptr %4, align 1
  br label %76

76:                                               ; preds = %75, %73, %41
  %77 = load i1, ptr %4, align 1
  ret i1 %77
}