; Function Attrs: mustprogress nofree nounwind null_pointer_is_valid sspstrong willreturn memory(read, inaccessiblemem: none) uwtable
define hidden noundef zeroext i1 @rtpstream_id_equal_pinfo(ptr noundef readonly captures(none) %0, ptr noundef readonly captures(none) %1, i1 noundef zeroext %2) local_unnamed_addr #3 {
  %4 = load i32, ptr %0, align 8
  br i1 %2, label %59, label %5

5:                                                ; preds = %3
  %6 = getelementptr inbounds nuw i8, ptr %1, i64 208
  %7 = load i32, ptr %6, align 8
  %8 = icmp eq i32 %4, %7
  br i1 %8, label %9, label %addresses_equal.exit

9:                                                ; preds = %5
  %10 = getelementptr inbounds nuw i8, ptr %0, i64 4
  %11 = load i32, ptr %10, align 4
  %12 = getelementptr inbounds nuw i8, ptr %1, i64 212
  %13 = load i32, ptr %12, align 4
  %14 = icmp eq i32 %11, %13
  br i1 %14, label %15, label %addresses_equal.exit

15:                                               ; preds = %9
  %16 = icmp eq i32 %11, 0
  br i1 %16, label %24, label %17

17:                                               ; preds = %15
  %18 = getelementptr inbounds nuw i8, ptr %0, i64 8
  %19 = load ptr, ptr %18, align 8
  %20 = getelementptr inbounds nuw i8, ptr %1, i64 216
  %21 = load ptr, ptr %20, align 8
  %22 = sext i32 %11 to i64
  %bcmp.i = tail call i32 @bcmp(ptr %19, ptr %21, i64 %22)
  %23 = icmp eq i32 %bcmp.i, 0
  br i1 %23, label %24, label %addresses_equal.exit

24:                                               ; preds = %17, %15
  %25 = getelementptr inbounds nuw i8, ptr %0, i64 24
  %26 = load i16, ptr %25, align 8
  %27 = zext i16 %26 to i32
  %28 = getelementptr inbounds nuw i8, ptr %1, i64 284
  %29 = load i32, ptr %28, align 4
  %30 = icmp eq i32 %29, %27
  br i1 %30, label %31, label %addresses_equal.exit

31:                                               ; preds = %24
  %32 = getelementptr inbounds nuw i8, ptr %0, i64 32
  %33 = getelementptr inbounds nuw i8, ptr %1, i64 232
  %34 = load i32, ptr %32, align 8
  %35 = load i32, ptr %33, align 8
  %36 = icmp eq i32 %34, %35
  br i1 %36, label %37, label %addresses_equal.exit

37:                                               ; preds = %31
  %38 = getelementptr inbounds nuw i8, ptr %0, i64 36
  %39 = load i32, ptr %38, align 4
  %40 = getelementptr inbounds nuw i8, ptr %1, i64 236
  %41 = load i32, ptr %40, align 4
  %42 = icmp eq i32 %39, %41
  br i1 %42, label %43, label %addresses_equal.exit

43:                                               ; preds = %37
  %44 = icmp eq i32 %39, 0
  br i1 %44, label %52, label %45

45:                                               ; preds = %43
  %46 = getelementptr inbounds nuw i8, ptr %0, i64 40
  %47 = load ptr, ptr %46, align 8
  %48 = getelementptr inbounds nuw i8, ptr %1, i64 240
  %49 = load ptr, ptr %48, align 8
  %50 = sext i32 %39 to i64
  %bcmp.i18 = tail call i32 @bcmp(ptr %47, ptr %49, i64 %50)
  %51 = icmp eq i32 %bcmp.i18, 0
  br i1 %51, label %52, label %addresses_equal.exit

52:                                               ; preds = %45, %43
  %53 = getelementptr inbounds nuw i8, ptr %0, i64 56
  %54 = load i16, ptr %53, align 8
  %55 = zext i16 %54 to i32
  %56 = getelementptr inbounds nuw i8, ptr %1, i64 288
  %57 = load i32, ptr %56, align 8
  %58 = icmp eq i32 %57, %55
  br i1 %58, label %113, label %addresses_equal.exit

59:                                               ; preds = %3
  %60 = getelementptr inbounds nuw i8, ptr %1, i64 232
  %61 = load i32, ptr %60, align 8
  %62 = icmp eq i32 %4, %61
  br i1 %62, label %63, label %addresses_equal.exit

63:                                               ; preds = %59
  %64 = getelementptr inbounds nuw i8, ptr %0, i64 4
  %65 = load i32, ptr %64, align 4
  %66 = getelementptr inbounds nuw i8, ptr %1, i64 236
  %67 = load i32, ptr %66, align 4
  %68 = icmp eq i32 %65, %67
  br i1 %68, label %69, label %addresses_equal.exit

69:                                               ; preds = %63
  %70 = icmp eq i32 %65, 0
  br i1 %70, label %78, label %71

71:                                               ; preds = %69
  %72 = getelementptr inbounds nuw i8, ptr %0, i64 8
  %73 = load ptr, ptr %72, align 8
  %74 = getelementptr inbounds nuw i8, ptr %1, i64 240
  %75 = load ptr, ptr %74, align 8
  %76 = sext i32 %65 to i64
  %bcmp.i21 = tail call i32 @bcmp(ptr %73, ptr %75, i64 %76)
  %77 = icmp eq i32 %bcmp.i21, 0
  br i1 %77, label %78, label %addresses_equal.exit

78:                                               ; preds = %71, %69
  %79 = getelementptr inbounds nuw i8, ptr %0, i64 24
  %80 = load i16, ptr %79, align 8
  %81 = zext i16 %80 to i32
  %82 = getelementptr inbounds nuw i8, ptr %1, i64 288
  %83 = load i32, ptr %82, align 8
  %84 = icmp eq i32 %83, %81
  br i1 %84, label %85, label %addresses_equal.exit

85:                                               ; preds = %78
  %86 = getelementptr inbounds nuw i8, ptr %0, i64 32
  %87 = getelementptr inbounds nuw i8, ptr %1, i64 208
  %88 = load i32, ptr %86, align 8
  %89 = load i32, ptr %87, align 8
  %90 = icmp eq i32 %88, %89
  br i1 %90, label %91, label %addresses_equal.exit

91:                                               ; preds = %85
  %92 = getelementptr inbounds nuw i8, ptr %0, i64 36
  %93 = load i32, ptr %92, align 4
  %94 = getelementptr inbounds nuw i8, ptr %1, i64 212
  %95 = load i32, ptr %94, align 4
  %96 = icmp eq i32 %93, %95
  br i1 %96, label %97, label %addresses_equal.exit

97:                                               ; preds = %91
  %98 = icmp eq i32 %93, 0
  br i1 %98, label %106, label %99

99:                                               ; preds = %97
  %100 = getelementptr inbounds nuw i8, ptr %0, i64 40
  %101 = load ptr, ptr %100, align 8
  %102 = getelementptr inbounds nuw i8, ptr %1, i64 216
  %103 = load ptr, ptr %102, align 8
  %104 = sext i32 %93 to i64
  %bcmp.i24 = tail call i32 @bcmp(ptr %101, ptr %103, i64 %104)
  %105 = icmp eq i32 %bcmp.i24, 0
  br i1 %105, label %106, label %addresses_equal.exit

106:                                              ; preds = %99, %97
  %107 = getelementptr inbounds nuw i8, ptr %0, i64 56
  %108 = load i16, ptr %107, align 8
  %109 = zext i16 %108 to i32
  %110 = getelementptr inbounds nuw i8, ptr %1, i64 284
  %111 = load i32, ptr %110, align 4
  %112 = icmp eq i32 %111, %109
  br i1 %112, label %113, label %addresses_equal.exit

addresses_equal.exit:                             ; preds = %99, %91, %85, %71, %63, %59, %45, %37, %31, %17, %9, %5, %78, %106, %24, %52
  br label %113

113:                                              ; preds = %106, %52, %addresses_equal.exit
  %.0 = phi i1 [ false, %addresses_equal.exit ], [ true, %52 ], [ true, %106 ]
  ret i1 %.0
}